; Function Attrs: mustprogress nofree norecurse nosync nounwind willreturn memory(argmem: write) uwtable
define void @Ssw_ManSetDefaultParams(ptr noundef writeonly captures(none) initializes((0, 176)) %0) local_unnamed_addr #0 {
  %2 = getelementptr inbounds nuw i8, ptr %0, i64 12
  tail call void @llvm.memset.p0.i64(ptr noundef nonnull align 8 dereferenceable(176) %0, i8 0, i64 176, i1 false)
  store i32 1, ptr %2, align 4
  %3 = getelementptr inbounds nuw i8, ptr %0, i64 16
  store i32 2, ptr %3, align 8
  %4 = getelementptr inbounds nuw i8, ptr %0, i64 24
  store i32 0, ptr %4, align 8
  %5 = getelementptr inbounds nuw i8, ptr %0, i64 32
  store i32 1000, ptr %5, align 8
  %6 = getelementptr inbounds nuw i8, ptr %0, i64 36
  store i32 5000000, ptr %6, align 4
  %7 = getelementptr inbounds nuw i8, ptr %0, i64 40
  store i32 100, ptr %7, align 8
  %8 = getelementptr inbounds nuw i8, ptr %0, i64 44
  store i32 -1, ptr %8, align 4
  %9 = getelementptr inbounds nuw i8, ptr %0, i64 52
  store i32 1000, ptr %9, align 4
  %10 = getelementptr inbounds nuw i8, ptr %0, i64 56
  store i32 -1, ptr %10, align 8
  %11 = getelementptr inbounds nuw i8, ptr %0, i64 68
  %12 = getelementptr inbounds nuw i8, ptr %0, i64 120
  store i32 0, ptr %12, align 8
  %13 = getelementptr inbounds nuw i8, ptr %0, i64 132
  store i32 0, ptr %13, align 4
  %14 = getelementptr inbounds nuw i8, ptr %0, i64 136
  tail call void @llvm.memset.p0.i64(ptr noundef nonnull align 4 dereferenceable(28) %11, i8 0, i64 28, i1 false)
  store i32 1000, ptr %14, align 8
  %15 = getelementptr inbounds nuw i8, ptr %0, i64 140
  store i32 50, ptr %15, align 4
  %16 = getelementptr inbounds nuw i8, ptr %0, i64 144
  store i32 5000, ptr %16, align 8
  %17 = getelementptr inbounds nuw i8, ptr %0, i64 148
  store i32 250, ptr %17, align 4
  ret void
}